target datalayout = "e-m:e-p270:32:32-p271:32:32-p272:64:64-i64:64-i128:128-f80:128-n8:16:32:64-S128"
target triple = "x86_64-pc-linux-gnu"

%struct.AVRational = type { i32, i32 }
%struct.MOVAtom = type { i32, i64 }
%struct.MOVContext = type { ptr, ptr, i32, i64, i32, i32, i32, i32, i32, i32, ptr, i32, ptr, ptr, i32, %struct.MOVFragment, ptr, i32, i32, i32, ptr, i32, i32, i32, i32, i32, i32, i32, i64, i32, i32, ptr, i32, i32, i32, i32, i32, %struct.MOVFragmentIndex, i32, i32, [20 x i8], [20 x i8], ptr, i32, ptr, i32, ptr, i32, ptr, i32, ptr, ptr, i32, i32, [3 x [3 x i32]], i32, i32, i32, i32, i32, ptr, i32, ptr, i32, i32, i64, i32 }
%struct.MOVFragment = type { i32, i32, i64, i64, i64, i32, i32, i32, i32 }
%struct.MOVFragmentIndex = type { i32, i32, i32, i32, ptr }

; Function Attrs: nounwind uwtable
define internal i32 @mov_read_chpl(ptr noundef %0, ptr noundef %1, i32 %2, i64 %3) #0 {
  %5 = alloca i32, align 4
  %6 = alloca %struct.MOVAtom, align 8
  %7 = alloca ptr, align 8
  %8 = alloca ptr, align 8
  %9 = alloca i64, align 8
  %10 = alloca i32, align 4
  %11 = alloca i32, align 4
  %12 = alloca i32, align 4
  %13 = alloca i32, align 4
  %14 = alloca [257 x i8], align 16
  %15 = alloca i32, align 4
  %16 = alloca i32, align 4
  %17 = alloca %struct.AVRational, align 4
  %18 = getelementptr inbounds nuw { i32, i64 }, ptr %6, i32 0, i32 0
  store i32 %2, ptr %18, align 8
  %19 = getelementptr inbounds nuw { i32, i64 }, ptr %6, i32 0, i32 1
  store i64 %3, ptr %19, align 8
  store ptr %0, ptr %7, align 8, !tbaa !4
  store ptr %1, ptr %8, align 8, !tbaa !9
  call void @llvm.lifetime.start.p0(i64 8, ptr %9) #14
  call void @llvm.lifetime.start.p0(i64 4, ptr %10) #14
  call void @llvm.lifetime.start.p0(i64 4, ptr %11) #14
  call void @llvm.lifetime.start.p0(i64 4, ptr %12) #14
  call void @llvm.lifetime.start.p0(i64 4, ptr %13) #14
  call void @llvm.lifetime.start.p0(i64 257, ptr %14) #14
  call void @llvm.lifetime.start.p0(i64 4, ptr %15) #14
  %20 = load ptr, ptr %7, align 8, !tbaa !4
  %21 = getelementptr inbounds nuw %struct.MOVContext, ptr %20, i32 0, i32 26
  %22 = load i32, ptr %21, align 4, !tbaa !170
  %23 = icmp ne i32 %22, 0
  br i1 %23, label %24, label %25

24:                                               ; preds = %4
  store i32 0, ptr %5, align 4
  store i32 1, ptr %16, align 4
  br label %94

25:                                               ; preds = %4
  %26 = getelementptr inbounds nuw %struct.MOVAtom, ptr %6, i32 0, i32 1
  %27 = load i64, ptr %26, align 8, !tbaa !58
  %28 = sub nsw i64 %27, 5
  store i64 %28, ptr %26, align 8, !tbaa !58
  %29 = icmp slt i64 %28, 0
  br i1 %29, label %30, label %31

30:                                               ; preds = %25
  store i32 0, ptr %5, align 4
  store i32 1, ptr %16, align 4
  br label %94

31:                                               ; preds = %25
  %32 = load ptr, ptr %8, align 8, !tbaa !9
  %33 = call i32 @avio_r8(ptr noundef %32)
  store i32 %33, ptr %13, align 4, !tbaa !11
  %34 = load ptr, ptr %8, align 8, !tbaa !9
  %35 = call i32 @avio_rb24(ptr noundef %34)
  %36 = load i32, ptr %13, align 4, !tbaa !11
  %37 = icmp ne i32 %36, 0
  br i1 %37, label %38, label %41

38:                                               ; preds = %31
  %39 = load ptr, ptr %8, align 8, !tbaa !9
  %40 = call i32 @avio_rb32(ptr noundef %39)
  br label %41

41:                                               ; preds = %38, %31
  %42 = load ptr, ptr %8, align 8, !tbaa !9
  %43 = call i32 @avio_r8(ptr noundef %42)
  store i32 %43, ptr %11, align 4, !tbaa !11
  store i32 0, ptr %10, align 4, !tbaa !11
  br label %44

44:                                               ; preds = %90, %41
  %45 = load i32, ptr %10, align 4, !tbaa !11
  %46 = load i32, ptr %11, align 4, !tbaa !11
  %47 = icmp slt i32 %45, %46
  br i1 %47, label %48, label %93

48:                                               ; preds = %44
  %49 = getelementptr inbounds nuw %struct.MOVAtom, ptr %6, i32 0, i32 1
  %50 = load i64, ptr %49, align 8, !tbaa !58
  %51 = icmp slt i64 %50, 9
  br i1 %51, label %52, label %53

52:                                               ; preds = %48
  store i32 0, ptr %5, align 4
  store i32 1, ptr %16, align 4
  br label %94

53:                                               ; preds = %48
  %54 = load ptr, ptr %8, align 8, !tbaa !9
  %55 = call i64 @avio_rb64(ptr noundef %54)
  store i64 %55, ptr %9, align 8, !tbaa !59
  %56 = load ptr, ptr %8, align 8, !tbaa !9
  %57 = call i32 @avio_r8(ptr noundef %56)
  store i32 %57, ptr %12, align 4, !tbaa !11
  %58 = load i32, ptr %12, align 4, !tbaa !11
  %59 = add nsw i32 9, %58
  %60 = sext i32 %59 to i64
  %61 = getelementptr inbounds nuw %struct.MOVAtom, ptr %6, i32 0, i32 1
  %62 = load i64, ptr %61, align 8, !tbaa !58
  %63 = sub nsw i64 %62, %60
  store i64 %63, ptr %61, align 8, !tbaa !58
  %64 = icmp slt i64 %63, 0
  br i1 %64, label %65, label %66

65:                                               ; preds = %53
  store i32 0, ptr %5, align 4
  store i32 1, ptr %16, align 4
  br label %94

66:                                               ; preds = %53
  %67 = load ptr, ptr %8, align 8, !tbaa !9
  %68 = getelementptr inbounds [257 x i8], ptr %14, i64 0, i64 0
  %69 = load i32, ptr %12, align 4, !tbaa !11
  %70 = call i32 @ffio_read_size(ptr noundef %67, ptr noundef %68, i32 noundef %69)
  store i32 %70, ptr %15, align 4, !tbaa !11
  %71 = load i32, ptr %15, align 4, !tbaa !11
  %72 = icmp slt i32 %71, 0
  br i1 %72, label %73, label %75

73:                                               ; preds = %66
  %74 = load i32, ptr %15, align 4, !tbaa !11
  store i32 %74, ptr %5, align 4
  store i32 1, ptr %16, align 4
  br label %94

75:                                               ; preds = %66
  %76 = load i32, ptr %12, align 4, !tbaa !11
  %77 = sext i32 %76 to i64
  %78 = getelementptr inbounds [257 x i8], ptr %14, i64 0, i64 %77
  store i8 0, ptr %78, align 1, !tbaa !55
  %79 = load ptr, ptr %7, align 8, !tbaa !4
  %80 = getelementptr inbounds nuw %struct.MOVContext, ptr %79, i32 0, i32 1
  %81 = load ptr, ptr %80, align 8, !tbaa !13
  %82 = load i32, ptr %10, align 4, !tbaa !11
  %83 = sext i32 %82 to i64
  %84 = getelementptr inbounds nuw %struct.AVRational, ptr %17, i32 0, i32 0
  store i32 1, ptr %84, align 4, !tbaa !286
  %85 = getelementptr inbounds nuw %struct.AVRational, ptr %17, i32 0, i32 1
  store i32 10000000, ptr %85, align 4, !tbaa !287
  %86 = load i64, ptr %9, align 8, !tbaa !59
  %87 = getelementptr inbounds [257 x i8], ptr %14, i64 0, i64 0
  %88 = load i64, ptr %17, align 4
  %89 = call ptr @avpriv_new_chapter(ptr noundef %81, i64 noundef %83, i64 %88, i64 noundef %86, i64 noundef -9223372036854775808, ptr noundef %87)
  br label %90

90:                                               ; preds = %75
  %91 = load i32, ptr %10, align 4, !tbaa !11
  %92 = add nsw i32 %91, 1
  store i32 %92, ptr %10, align 4, !tbaa !11
  br label %44, !llvm.loop !289

93:                                               ; preds = %44
  store i32 0, ptr %5, align 4
  store i32 1, ptr %16, align 4
  br label %94

94:                                               ; preds = %93, %73, %65, %52, %30, %24
  call void @llvm.lifetime.end.p0(i64 4, ptr %15) #14
  call void @llvm.lifetime.end.p0(i64 257, ptr %14) #14
  call void @llvm.lifetime.end.p0(i64 4, ptr %13) #14
  call void @llvm.lifetime.end.p0(i64 4, ptr %12) #14
  call void @llvm.lifetime.end.p0(i64 4, ptr %11) #14
  call void @llvm.lifetime.end.p0(i64 4, ptr %10) #14
  call void @llvm.lifetime.end.p0(i64 8, ptr %9) #14
  %95 = load i32, ptr %5, align 4
  ret i32 %95
}