; Function Attrs: nounwind uwtable
define internal range(i32 -2147483648, 1) i32 @mov_read_chpl(ptr noundef readonly captures(none) %0, ptr noundef %1, i32 %2, i64 %3) #0 {
  %5 = alloca [257 x i8], align 16
  call void @llvm.lifetime.start.p0(i64 257, ptr nonnull %5) #16
  %6 = getelementptr inbounds nuw i8, ptr %0, i64 196
  %7 = load i32, ptr %6, align 4, !tbaa !227
  %.not = icmp eq i32 %7, 0
  br i1 %.not, label %8, label %.loopexit

8:                                                ; preds = %4
  %9 = add nsw i64 %3, -5
  %10 = icmp slt i64 %3, 5
  br i1 %10, label %.loopexit, label %11

11:                                               ; preds = %8
  %12 = tail call i32 @avio_r8(ptr noundef %1) #16
  %13 = tail call i32 @avio_rb24(ptr noundef %1) #16
  %.not27 = icmp eq i32 %12, 0
  br i1 %.not27, label %16, label %14

14:                                               ; preds = %11
  %15 = tail call i32 @avio_rb32(ptr noundef %1) #16
  br label %16

16:                                               ; preds = %14, %11
  %17 = tail call i32 @avio_r8(ptr noundef %1) #16
  %18 = icmp slt i32 %17, 1
  %19 = icmp samesign ult i64 %3, 14
  %or.cond28 = select i1 %18, i1 true, i1 %19
  br i1 %or.cond28, label %.loopexit, label %.lr.ph

.lr.ph:                                           ; preds = %16
  %20 = getelementptr inbounds nuw i8, ptr %0, i64 8
  %21 = zext nneg i32 %17 to i64
  br label %22

22:                                               ; preds = %.lr.ph, %32
  %indvars.iv = phi i64 [ 0, %.lr.ph ], [ %indvars.iv.next, %32 ]
  %.sroa.1.030 = phi i64 [ %9, %.lr.ph ], [ %27, %32 ]
  %23 = call i64 @avio_rb64(ptr noundef %1) #16
  %24 = call i32 @avio_r8(ptr noundef %1) #16
  %25 = add nsw i32 %24, 9
  %26 = sext i32 %25 to i64
  %27 = sub nsw i64 %.sroa.1.030, %26
  %28 = icmp slt i64 %27, 0
  br i1 %28, label %.loopexit, label %29

29:                                               ; preds = %22
  %30 = call i32 @ffio_read_size(ptr noundef %1, ptr noundef nonnull %5, i32 noundef %24) #16
  %31 = icmp slt i32 %30, 0
  br i1 %31, label %.loopexit, label %32

32:                                               ; preds = %29
  %33 = sext i32 %24 to i64
  %34 = getelementptr inbounds [257 x i8], ptr %5, i64 0, i64 %33
  store i8 0, ptr %34, align 1, !tbaa !82
  %35 = load ptr, ptr %20, align 8, !tbaa !4
  %36 = call ptr @avpriv_new_chapter(ptr noundef %35, i64 noundef %indvars.iv, i64 42949672960000001, i64 noundef %23, i64 noundef -9223372036854775808, ptr noundef nonnull %5) #16
  %indvars.iv.next = add nuw nsw i64 %indvars.iv, 1
  %37 = icmp samesign uge i64 %indvars.iv.next, %21
  %38 = icmp slt i64 %27, 9
  %or.cond = or i1 %37, %38
  br i1 %or.cond, label %.loopexit, label %22, !llvm.loop !398

.loopexit:                                        ; preds = %22, %29, %32, %16, %8, %4
  %.0 = phi i32 [ 0, %4 ], [ 0, %8 ], [ 0, %16 ], [ 0, %22 ], [ %30, %29 ], [ 0, %32 ]
  call void @llvm.lifetime.end.p0(i64 257, ptr nonnull %5) #16
  ret i32 %.0
}